target datalayout = "e-m:e-p270:32:32-p271:32:32-p272:64:64-i64:64-i128:128-f80:128-n8:16:32:64-S128"
target triple = "x86_64-pc-linux-gnu"

%struct.Gia_Man_t_ = type { ptr, ptr, i32, i32, i32, i32, ptr, ptr, i32, i32, i32, ptr, ptr, %struct.Vec_Int_t_, %struct.Vec_Int_t_, i32, i32, i32, %struct.Vec_Int_t_, ptr, ptr, ptr, i32, i32, i32, i32, ptr, ptr, ptr, ptr, ptr, i32, i32, ptr, i32, ptr, ptr, ptr, ptr, ptr, ptr, ptr, ptr, ptr, ptr, ptr, ptr, ptr, ptr, ptr, ptr, ptr, ptr, %struct.Vec_Int_t_, %struct.Vec_Int_t_, ptr, ptr, ptr, ptr, ptr, ptr, ptr, ptr, ptr, ptr, ptr, ptr, ptr, ptr, ptr, ptr, ptr, ptr, ptr, ptr, ptr, i32, float, float, ptr, ptr, i32, ptr, ptr, ptr, ptr, ptr, ptr, ptr, ptr, ptr, ptr, ptr, ptr, ptr, ptr, ptr, i64, i64, ptr, ptr, i32, i32, i32, i32, i32, i32, i32, i32, i32, i32, i32, i32, ptr, ptr, ptr, ptr, ptr, ptr, ptr, ptr, i32, i32, i32, ptr, i32, i32, ptr, ptr, ptr, ptr, ptr, ptr, i32, i32, ptr, %struct.Vec_Int_t_, %struct.Vec_Int_t_, %struct.Vec_Int_t_, ptr, ptr, ptr, i32, i32, i32, i32, ptr, ptr, ptr, ptr, ptr }
%struct.Vec_Int_t_ = type { i32, i32, ptr }
%struct.Gia_Obj_t_ = type <{ i64, i32 }>

; Function Attrs: inlinehint nounwind uwtable
define internal void @Vec_IntGrow(ptr noundef %0, i32 noundef %1) #4 {
  %3 = alloca ptr, align 8
  %4 = alloca i32, align 4
  store ptr %0, ptr %3, align 8, !tbaa !46
  store i32 %1, ptr %4, align 4, !tbaa !35
  %5 = load ptr, ptr %3, align 8, !tbaa !46
  %6 = getelementptr inbounds nuw %struct.Vec_Int_t_, ptr %5, i32 0, i32 0
  %7 = load i32, ptr %6, align 8, !tbaa !52
  %8 = load i32, ptr %4, align 4, !tbaa !35
  %9 = icmp sge i32 %7, %8
  br i1 %9, label %10, label %11

10:                                               ; preds = %2
  br label %36

11:                                               ; preds = %2
  %12 = load ptr, ptr %3, align 8, !tbaa !46
  %13 = getelementptr inbounds nuw %struct.Vec_Int_t_, ptr %12, i32 0, i32 2
  %14 = load ptr, ptr %13, align 8, !tbaa !53
  %15 = icmp ne ptr %14, null
  br i1 %15, label %16, label %24

16:                                               ; preds = %11
  %17 = load ptr, ptr %3, align 8, !tbaa !46
  %18 = getelementptr inbounds nuw %struct.Vec_Int_t_, ptr %17, i32 0, i32 2
  %19 = load ptr, ptr %18, align 8, !tbaa !53
  %20 = load i32, ptr %4, align 4, !tbaa !35
  %21 = sext i32 %20 to i64
  %22 = mul i64 4, %21
  %23 = call ptr @realloc(ptr noundef %19, i64 noundef %22) #16
  br label %29

24:                                               ; preds = %11
  %25 = load i32, ptr %4, align 4, !tbaa !35
  %26 = sext i32 %25 to i64
  %27 = mul i64 4, %26
  %28 = call noalias ptr @malloc(i64 noundef %27) #14
  br label %29

29:                                               ; preds = %24, %16
  %30 = phi ptr [ %23, %16 ], [ %28, %24 ]
  %31 = load ptr, ptr %3, align 8, !tbaa !46
  %32 = getelementptr inbounds nuw %struct.Vec_Int_t_, ptr %31, i32 0, i32 2
  store ptr %30, ptr %32, align 8, !tbaa !53
  %33 = load i32, ptr %4, align 4, !tbaa !35
  %34 = load ptr, ptr %3, align 8, !tbaa !46
  %35 = getelementptr inbounds nuw %struct.Vec_Int_t_, ptr %34, i32 0, i32 0
  store i32 %33, ptr %35, align 8, !tbaa !52
  br label %36

36:                                               ; preds = %29, %10
  ret void
}

; Function Attrs: inlinehint nounwind uwtable
define internal i32 @Abc_Lit2Var(i32 noundef %0) #4 {
  %2 = alloca i32, align 4
  store i32 %0, ptr %2, align 4, !tbaa !35
  %3 = load i32, ptr %2, align 4, !tbaa !35
  %4 = ashr i32 %3, 1
  ret i32 %4
}

; Function Attrs: inlinehint nounwind uwtable
define internal void @Vec_IntPush(ptr noundef %0, i32 noundef %1) #4 {
  %3 = alloca ptr, align 8
  %4 = alloca i32, align 4
  store ptr %0, ptr %3, align 8, !tbaa !46
  store i32 %1, ptr %4, align 4, !tbaa !35
  %5 = load ptr, ptr %3, align 8, !tbaa !46
  %6 = getelementptr inbounds nuw %struct.Vec_Int_t_, ptr %5, i32 0, i32 1
  %7 = load i32, ptr %6, align 4, !tbaa !47
  %8 = load ptr, ptr %3, align 8, !tbaa !46
  %9 = getelementptr inbounds nuw %struct.Vec_Int_t_, ptr %8, i32 0, i32 0
  %10 = load i32, ptr %9, align 8, !tbaa !52
  %11 = icmp eq i32 %7, %10
  br i1 %11, label %12, label %26

12:                                               ; preds = %2
  %13 = load ptr, ptr %3, align 8, !tbaa !46
  %14 = getelementptr inbounds nuw %struct.Vec_Int_t_, ptr %13, i32 0, i32 0
  %15 = load i32, ptr %14, align 8, !tbaa !52
  %16 = icmp slt i32 %15, 16
  br i1 %16, label %17, label %19

17:                                               ; preds = %12
  %18 = load ptr, ptr %3, align 8, !tbaa !46
  call void @Vec_IntGrow(ptr noundef %18, i32 noundef 16)
  br label %25

19:                                               ; preds = %12
  %20 = load ptr, ptr %3, align 8, !tbaa !46
  %21 = load ptr, ptr %3, align 8, !tbaa !46
  %22 = getelementptr inbounds nuw %struct.Vec_Int_t_, ptr %21, i32 0, i32 0
  %23 = load i32, ptr %22, align 8, !tbaa !52
  %24 = mul nsw i32 2, %23
  call void @Vec_IntGrow(ptr noundef %20, i32 noundef %24)
  br label %25

25:                                               ; preds = %19, %17
  br label %26

26:                                               ; preds = %25, %2
  %27 = load i32, ptr %4, align 4, !tbaa !35
  %28 = load ptr, ptr %3, align 8, !tbaa !46
  %29 = getelementptr inbounds nuw %struct.Vec_Int_t_, ptr %28, i32 0, i32 2
  %30 = load ptr, ptr %29, align 8, !tbaa !53
  %31 = load ptr, ptr %3, align 8, !tbaa !46
  %32 = getelementptr inbounds nuw %struct.Vec_Int_t_, ptr %31, i32 0, i32 1
  %33 = load i32, ptr %32, align 4, !tbaa !47
  %34 = add nsw i32 %33, 1
  store i32 %34, ptr %32, align 4, !tbaa !47
  %35 = sext i32 %33 to i64
  %36 = getelementptr inbounds i32, ptr %30, i64 %35
  store i32 %27, ptr %36, align 4, !tbaa !35
  ret void
}

; Function Attrs: inlinehint nounwind uwtable
define internal i32 @Gia_ObjFaninId2(ptr noundef %0, i32 noundef %1) #4 {
  %3 = alloca ptr, align 8
  %4 = alloca i32, align 4
  store ptr %0, ptr %3, align 8, !tbaa !3
  store i32 %1, ptr %4, align 4, !tbaa !35
  %5 = load ptr, ptr %3, align 8, !tbaa !3
  %6 = getelementptr inbounds nuw %struct.Gia_Man_t_, ptr %5, i32 0, i32 7
  %7 = load ptr, ptr %6, align 8, !tbaa !32
  %8 = icmp ne ptr %7, null
  br i1 %8, label %9, label %27

9:                                                ; preds = %2
  %10 = load ptr, ptr %3, align 8, !tbaa !3
  %11 = getelementptr inbounds nuw %struct.Gia_Man_t_, ptr %10, i32 0, i32 7
  %12 = load ptr, ptr %11, align 8, !tbaa !32
  %13 = load i32, ptr %4, align 4, !tbaa !35
  %14 = sext i32 %13 to i64
  %15 = getelementptr inbounds i32, ptr %12, i64 %14
  %16 = load i32, ptr %15, align 4, !tbaa !35
  %17 = icmp ne i32 %16, 0
  br i1 %17, label %18, label %27

18:                                               ; preds = %9
  %19 = load ptr, ptr %3, align 8, !tbaa !3
  %20 = getelementptr inbounds nuw %struct.Gia_Man_t_, ptr %19, i32 0, i32 7
  %21 = load ptr, ptr %20, align 8, !tbaa !32
  %22 = load i32, ptr %4, align 4, !tbaa !35
  %23 = sext i32 %22 to i64
  %24 = getelementptr inbounds i32, ptr %21, i64 %23
  %25 = load i32, ptr %24, align 4, !tbaa !35
  %26 = call i32 @Abc_Lit2Var(i32 noundef %25)
  br label %28

27:                                               ; preds = %9, %2
  br label %28

28:                                               ; preds = %27, %18
  %29 = phi i32 [ %26, %18 ], [ -1, %27 ]
  ret i32 %29
}

; Function Attrs: inlinehint nounwind uwtable
define internal i32 @Gia_ObjIsMuxId(ptr noundef %0, i32 noundef %1) #4 {
  %3 = alloca ptr, align 8
  %4 = alloca i32, align 4
  store ptr %0, ptr %3, align 8, !tbaa !3
  store i32 %1, ptr %4, align 4, !tbaa !35
  %5 = load ptr, ptr %3, align 8, !tbaa !3
  %6 = getelementptr inbounds nuw %struct.Gia_Man_t_, ptr %5, i32 0, i32 7
  %7 = load ptr, ptr %6, align 8, !tbaa !32
  %8 = icmp ne ptr %7, null
  br i1 %8, label %9, label %18

9:                                                ; preds = %2
  %10 = load ptr, ptr %3, align 8, !tbaa !3
  %11 = getelementptr inbounds nuw %struct.Gia_Man_t_, ptr %10, i32 0, i32 7
  %12 = load ptr, ptr %11, align 8, !tbaa !32
  %13 = load i32, ptr %4, align 4, !tbaa !35
  %14 = sext i32 %13 to i64
  %15 = getelementptr inbounds i32, ptr %12, i64 %14
  %16 = load i32, ptr %15, align 4, !tbaa !35
  %17 = icmp ugt i32 %16, 0
  br label %18

18:                                               ; preds = %9, %2
  %19 = phi i1 [ false, %2 ], [ %17, %9 ]
  %20 = zext i1 %19 to i32
  ret i32 %20
}

; Function Attrs: inlinehint nounwind uwtable
define internal i32 @Gia_ObjFaninId1(ptr noundef %0, i32 noundef %1) #4 {
  %3 = alloca ptr, align 8
  %4 = alloca i32, align 4
  store ptr %0, ptr %3, align 8, !tbaa !37
  store i32 %1, ptr %4, align 4, !tbaa !35
  %5 = load i32, ptr %4, align 4, !tbaa !35
  %6 = load ptr, ptr %3, align 8, !tbaa !37
  %7 = load i64, ptr %6, align 4
  %8 = lshr i64 %7, 32
  %9 = and i64 %8, 536870911
  %10 = trunc i64 %9 to i32
  %11 = sub nsw i32 %5, %10
  ret i32 %11
}

; Function Attrs: inlinehint nounwind uwtable
define internal i32 @Gia_ObjFaninId0(ptr noundef %0, i32 noundef %1) #4 {
  %3 = alloca ptr, align 8
  %4 = alloca i32, align 4
  store ptr %0, ptr %3, align 8, !tbaa !37
  store i32 %1, ptr %4, align 4, !tbaa !35
  %5 = load i32, ptr %4, align 4, !tbaa !35
  %6 = load ptr, ptr %3, align 8, !tbaa !37
  %7 = load i64, ptr %6, align 4
  %8 = and i64 %7, 536870911
  %9 = trunc i64 %8 to i32
  %10 = sub nsw i32 %5, %9
  ret i32 %10
}

; Function Attrs: inlinehint nounwind uwtable
define internal void @Vec_IntClear(ptr noundef %0) #4 {
  %2 = alloca ptr, align 8
  store ptr %0, ptr %2, align 8, !tbaa !46
  %3 = load ptr, ptr %2, align 8, !tbaa !46
  %4 = getelementptr inbounds nuw %struct.Vec_Int_t_, ptr %3, i32 0, i32 1
  store i32 0, ptr %4, align 4, !tbaa !47
  ret void
}

; Function Attrs: inlinehint nounwind uwtable
define internal ptr @Gia_ManObj(ptr noundef %0, i32 noundef %1) #4 {
  %3 = alloca ptr, align 8
  %4 = alloca i32, align 4
  store ptr %0, ptr %3, align 8, !tbaa !3
  store i32 %1, ptr %4, align 4, !tbaa !35
  %5 = load ptr, ptr %3, align 8, !tbaa !3
  %6 = getelementptr inbounds nuw %struct.Gia_Man_t_, ptr %5, i32 0, i32 6
  %7 = load ptr, ptr %6, align 8, !tbaa !45
  %8 = load i32, ptr %4, align 4, !tbaa !35
  %9 = sext i32 %8 to i64
  %10 = getelementptr inbounds %struct.Gia_Obj_t_, ptr %7, i64 %9
  ret ptr %10
}

; Function Attrs: nounwind uwtable
define void @Gia_ManTisCollectMffc(ptr noundef %0, i32 noundef %1, ptr noundef %2, ptr noundef %3) #0 {
  %5 = alloca ptr, align 8
  %6 = alloca i32, align 4
  %7 = alloca ptr, align 8
  %8 = alloca ptr, align 8
  %9 = alloca ptr, align 8
  store ptr %0, ptr %5, align 8, !tbaa !3
  store i32 %1, ptr %6, align 4, !tbaa !35
  store ptr %2, ptr %7, align 8, !tbaa !46
  store ptr %3, ptr %8, align 8, !tbaa !46
  call void @llvm.lifetime.start.p0(i64 8, ptr %9) #11
  %10 = load ptr, ptr %5, align 8, !tbaa !3
  %11 = load i32, ptr %6, align 4, !tbaa !35
  %12 = call ptr @Gia_ManObj(ptr noundef %10, i32 noundef %11)
  store ptr %12, ptr %9, align 8, !tbaa !37
  %13 = load ptr, ptr %7, align 8, !tbaa !46
  call void @Vec_IntClear(ptr noundef %13)
  %14 = load ptr, ptr %8, align 8, !tbaa !46
  call void @Vec_IntClear(ptr noundef %14)
  %15 = load ptr, ptr %5, align 8, !tbaa !3
  call void @Gia_ManIncrementTravId(ptr noundef %15)
  %16 = load ptr, ptr %5, align 8, !tbaa !3
  %17 = load ptr, ptr %9, align 8, !tbaa !37
  %18 = load i32, ptr %6, align 4, !tbaa !35
  %19 = call i32 @Gia_ObjFaninId0(ptr noundef %17, i32 noundef %18)
  %20 = load ptr, ptr %7, align 8, !tbaa !46
  %21 = load ptr, ptr %8, align 8, !tbaa !46
  call void @Gia_ManTisCollectMffc_rec(ptr noundef %16, i32 noundef %19, ptr noundef %20, ptr noundef %21)
  %22 = load ptr, ptr %5, align 8, !tbaa !3
  %23 = load ptr, ptr %9, align 8, !tbaa !37
  %24 = load i32, ptr %6, align 4, !tbaa !35
  %25 = call i32 @Gia_ObjFaninId1(ptr noundef %23, i32 noundef %24)
  %26 = load ptr, ptr %7, align 8, !tbaa !46
  %27 = load ptr, ptr %8, align 8, !tbaa !46
  call void @Gia_ManTisCollectMffc_rec(ptr noundef %22, i32 noundef %25, ptr noundef %26, ptr noundef %27)
  %28 = load ptr, ptr %5, align 8, !tbaa !3
  %29 = load i32, ptr %6, align 4, !tbaa !35
  %30 = call i32 @Gia_ObjIsMuxId(ptr noundef %28, i32 noundef %29)
  %31 = icmp ne i32 %30, 0
  br i1 %31, label %32, label %39

32:                                               ; preds = %4
  %33 = load ptr, ptr %5, align 8, !tbaa !3
  %34 = load ptr, ptr %5, align 8, !tbaa !3
  %35 = load i32, ptr %6, align 4, !tbaa !35
  %36 = call i32 @Gia_ObjFaninId2(ptr noundef %34, i32 noundef %35)
  %37 = load ptr, ptr %7, align 8, !tbaa !46
  %38 = load ptr, ptr %8, align 8, !tbaa !46
  call void @Gia_ManTisCollectMffc_rec(ptr noundef %33, i32 noundef %36, ptr noundef %37, ptr noundef %38)
  br label %39

39:                                               ; preds = %32, %4
  %40 = load ptr, ptr %7, align 8, !tbaa !46
  %41 = load i32, ptr %6, align 4, !tbaa !35
  call void @Vec_IntPush(ptr noundef %40, i32 noundef %41)
  call void @llvm.lifetime.end.p0(i64 8, ptr %9) #11
  ret void
}