; Function Attrs: nounwind uwtable
define void @Gia_ManTisCollectMffc(ptr noundef %0, i32 noundef %1, ptr noundef initializes((4, 8)) %2, ptr noundef initializes((4, 8)) %3) local_unnamed_addr #0 {
  %5 = getelementptr i8, ptr %0, i64 32
  %.val = load ptr, ptr %5, align 8, !tbaa !32
  %6 = sext i32 %1 to i64
  %7 = getelementptr inbounds %struct.Gia_Obj_t_, ptr %.val, i64 %6
  %8 = getelementptr inbounds nuw i8, ptr %2, i64 4
  store i32 0, ptr %8, align 4, !tbaa !36
  %9 = getelementptr inbounds nuw i8, ptr %3, i64 4
  store i32 0, ptr %9, align 4, !tbaa !36
  tail call void @Gia_ManIncrementTravId(ptr noundef %0) #15
  %.val23 = load i64, ptr %7, align 4
  %10 = trunc i64 %.val23 to i32
  %11 = and i32 %10, 536870911
  %12 = sub nsw i32 %1, %11
  tail call void @Gia_ManTisCollectMffc_rec(ptr noundef %0, i32 noundef %12, ptr noundef %2, ptr noundef %3)
  %.val24 = load i64, ptr %7, align 4
  %13 = lshr i64 %.val24, 32
  %14 = trunc nuw i64 %13 to i32
  %15 = and i32 %14, 536870911
  %16 = sub nsw i32 %1, %15
  tail call void @Gia_ManTisCollectMffc_rec(ptr noundef %0, i32 noundef %16, ptr noundef %2, ptr noundef %3)
  %17 = getelementptr i8, ptr %0, i64 40
  %.val25 = load ptr, ptr %17, align 8, !tbaa !31
  %.not.i = icmp eq ptr %.val25, null
  br i1 %.not.i, label %Gia_ObjIsMuxId.exit.thread, label %Gia_ObjIsMuxId.exit

Gia_ObjIsMuxId.exit:                              ; preds = %4
  %18 = getelementptr inbounds i32, ptr %.val25, i64 %6
  %19 = load i32, ptr %18, align 4, !tbaa !38
  %.not29 = icmp eq i32 %19, 0
  br i1 %.not29, label %Gia_ObjIsMuxId.exit.thread, label %Gia_ObjFaninId2.exit

Gia_ObjFaninId2.exit:                             ; preds = %Gia_ObjIsMuxId.exit
  %20 = ashr i32 %19, 1
  tail call void @Gia_ManTisCollectMffc_rec(ptr noundef nonnull %0, i32 noundef %20, ptr noundef nonnull %2, ptr noundef nonnull %3)
  br label %Gia_ObjIsMuxId.exit.thread

Gia_ObjIsMuxId.exit.thread:                       ; preds = %4, %Gia_ObjFaninId2.exit, %Gia_ObjIsMuxId.exit
  %21 = load i32, ptr %8, align 4, !tbaa !36
  %22 = load i32, ptr %2, align 8, !tbaa !39
  %23 = icmp eq i32 %21, %22
  br i1 %23, label %24, label %.Vec_IntGrow.exit10_crit_edge.i

.Vec_IntGrow.exit10_crit_edge.i:                  ; preds = %Gia_ObjIsMuxId.exit.thread
  %.phi.trans.insert.i = getelementptr inbounds nuw i8, ptr %2, i64 8
  %.pre.i = load ptr, ptr %.phi.trans.insert.i, align 8, !tbaa !37
  br label %Vec_IntPush.exit

24:                                               ; preds = %Gia_ObjIsMuxId.exit.thread
  %25 = icmp slt i32 %21, 16
  br i1 %25, label %26, label %34

26:                                               ; preds = %24
  %27 = getelementptr inbounds nuw i8, ptr %2, i64 8
  %28 = load ptr, ptr %27, align 8, !tbaa !37
  %.not9.i.i = icmp eq ptr %28, null
  br i1 %.not9.i.i, label %31, label %29

29:                                               ; preds = %26
  %30 = tail call dereferenceable_or_null(64) ptr @realloc(ptr noundef nonnull %28, i64 noundef 64) #19
  br label %Vec_IntGrow.exit.i

31:                                               ; preds = %26
  %32 = tail call noalias dereferenceable_or_null(64) ptr @malloc(i64 noundef 64) #17
  br label %Vec_IntGrow.exit.i

Vec_IntGrow.exit.i:                               ; preds = %31, %29
  %33 = phi ptr [ %30, %29 ], [ %32, %31 ]
  store ptr %33, ptr %27, align 8, !tbaa !37
  store i32 16, ptr %2, align 8, !tbaa !39
  br label %Vec_IntPush.exit

34:                                               ; preds = %24
  %35 = shl nuw nsw i32 %21, 1
  %36 = getelementptr inbounds nuw i8, ptr %2, i64 8
  %37 = load ptr, ptr %36, align 8, !tbaa !37
  %.not9.i9.i = icmp eq ptr %37, null
  %38 = zext nneg i32 %35 to i64
  %39 = shl nuw nsw i64 %38, 2
  br i1 %.not9.i9.i, label %42, label %40

40:                                               ; preds = %34
  %41 = tail call ptr @realloc(ptr noundef nonnull %37, i64 noundef %39) #19
  br label %44

42:                                               ; preds = %34
  %43 = tail call noalias ptr @malloc(i64 noundef %39) #17
  br label %44

44:                                               ; preds = %42, %40
  %45 = phi ptr [ %41, %40 ], [ %43, %42 ]
  store ptr %45, ptr %36, align 8, !tbaa !37
  store i32 %35, ptr %2, align 8, !tbaa !39
  br label %Vec_IntPush.exit

Vec_IntPush.exit:                                 ; preds = %.Vec_IntGrow.exit10_crit_edge.i, %Vec_IntGrow.exit.i, %44
  %46 = phi ptr [ %.pre.i, %.Vec_IntGrow.exit10_crit_edge.i ], [ %45, %44 ], [ %33, %Vec_IntGrow.exit.i ]
  %47 = load i32, ptr %8, align 4, !tbaa !36
  %48 = add nsw i32 %47, 1
  store i32 %48, ptr %8, align 4, !tbaa !36
  %49 = sext i32 %47 to i64
  %50 = getelementptr inbounds i32, ptr %46, i64 %49
  store i32 %1, ptr %50, align 4, !tbaa !38
  ret void
}